target datalayout = "e-m:e-p270:32:32-p271:32:32-p272:64:64-i64:64-i128:128-f80:128-n8:16:32:64-S128"
target triple = "x86_64-pc-linux-gnu"

%class.Node = type <{ ptr, ptr, ptr, i32, i32, i32, i32, i32, i32, i32, [4 x i8] }>
%class.VPointer = type { ptr, ptr, ptr, ptr, i32, i32, ptr, ptr, i8, i32 }
%class.TypeInt = type { %class.TypeInteger.base, i32, i32 }
%class.TypeInteger.base = type { %class.Type.base, i16 }
%class.Type.base = type <{ ptr, ptr, i32 }>

@g_assert_poison = external global ptr, align 8
@.str.16 = private unnamed_addr constant [32 x i8] c"src/hotspot/share/opto/node.hpp\00", align 1
@.str.17 = private unnamed_addr constant [31 x i8] c"guarantee(t != nullptr) failed\00", align 1
@.str.18 = private unnamed_addr constant [12 x i8] c"must be con\00", align 1

; Function Attrs: mustprogress nounwind uwtable
define linkonce_odr hidden noundef i32 @_ZNK7TypeInt7get_conEv(ptr noundef nonnull align 8 dereferenceable(32) %0) #1 comdat align 2 {
  %2 = alloca ptr, align 8
  store ptr %0, ptr %2, align 8
  %3 = load ptr, ptr %2, align 8
  %4 = getelementptr inbounds %class.TypeInt, ptr %3, i32 0, i32 1
  %5 = load i32, ptr %4, align 8
  ret i32 %5
}

; Function Attrs: mustprogress nounwind uwtable
define linkonce_odr hidden noundef i32 @_ZNK4Node7get_intEv(ptr noundef nonnull align 8 dereferenceable(52) %0) #1 comdat align 2 {
  %2 = alloca ptr, align 8
  %3 = alloca ptr, align 8
  store ptr %0, ptr %2, align 8
  %4 = load ptr, ptr %2, align 8
  %5 = call noundef ptr @_ZNK4Node13find_int_typeEv(ptr noundef nonnull align 8 dereferenceable(52) %4)
  store ptr %5, ptr %3, align 8
  br label %6

6:                                                ; preds = %1
  %7 = load ptr, ptr %3, align 8
  %8 = icmp ne ptr %7, null
  br i1 %8, label %11, label %9

9:                                                ; preds = %6
  %10 = load ptr, ptr @g_assert_poison, align 8
  store i8 88, ptr %10, align 1
  call void (ptr, i32, ptr, ptr, ...) @_Z15report_vm_errorPKciS0_S0_z(ptr noundef @.str.16, i32 noundef 1206, ptr noundef @.str.17, ptr noundef @.str.18) #8
  unreachable

11:                                               ; preds = %6
  br label %12

12:                                               ; preds = %11
  %13 = load ptr, ptr %3, align 8
  %14 = call noundef i32 @_ZNK7TypeInt7get_conEv(ptr noundef nonnull align 8 dereferenceable(32) %13)
  ret i32 %14
}

; Function Attrs: mustprogress nounwind uwtable
define linkonce_odr hidden noundef zeroext i1 @_ZNK4Node6is_ConEv(ptr noundef nonnull align 8 dereferenceable(52) %0) #1 comdat align 2 {
  %2 = alloca ptr, align 8
  store ptr %0, ptr %2, align 8
  %3 = load ptr, ptr %2, align 8
  %4 = getelementptr inbounds %class.Node, ptr %3, i32 0, i32 9
  %5 = load i32, ptr %4, align 8
  %6 = and i32 %5, 16
  %7 = icmp ne i32 %6, 0
  ret i1 %7
}

; Function Attrs: mustprogress nounwind uwtable
define linkonce_odr hidden noundef ptr @_ZNK4Node2inEj(ptr noundef nonnull align 8 dereferenceable(52) %0, i32 noundef %1) #1 comdat align 2 {
  %3 = alloca ptr, align 8
  %4 = alloca i32, align 4
  store ptr %0, ptr %3, align 8
  store i32 %1, ptr %4, align 4
  %5 = load ptr, ptr %3, align 8
  %6 = getelementptr inbounds %class.Node, ptr %5, i32 0, i32 1
  %7 = load ptr, ptr %6, align 8
  %8 = load i32, ptr %4, align 4
  %9 = zext i32 %8 to i64
  %10 = getelementptr inbounds ptr, ptr %7, i64 %9
  %11 = load ptr, ptr %10, align 8
  ret ptr %11
}

; Function Attrs: mustprogress nounwind uwtable
define linkonce_odr hidden noundef ptr @_ZNK8VPointer5invarEv(ptr noundef nonnull align 8 dereferenceable(64) %0) #1 comdat align 2 {
  %2 = alloca ptr, align 8
  store ptr %0, ptr %2, align 8
  %3 = load ptr, ptr %2, align 8
  %4 = getelementptr inbounds %class.VPointer, ptr %3, i32 0, i32 6
  %5 = load ptr, ptr %4, align 8
  ret ptr %5
}

; Function Attrs: mustprogress nounwind uwtable
define hidden noundef i32 @_ZNK8VPointer12invar_factorEv(ptr noundef nonnull align 8 dereferenceable(64) %0) #1 align 2 {
  %2 = alloca i32, align 4
  %3 = alloca ptr, align 8
  %4 = alloca ptr, align 8
  %5 = alloca i32, align 4
  store ptr %0, ptr %3, align 8
  %6 = load ptr, ptr %3, align 8
  %7 = call noundef ptr @_ZNK8VPointer5invarEv(ptr noundef nonnull align 8 dereferenceable(64) %6)
  store ptr %7, ptr %4, align 8
  %8 = load ptr, ptr %4, align 8
  %9 = icmp eq ptr %8, null
  br i1 %9, label %10, label %11

10:                                               ; preds = %1
  store i32 0, ptr %2, align 4
  br label %42

11:                                               ; preds = %1
  %12 = load ptr, ptr %4, align 8
  %13 = load ptr, ptr %12, align 8
  %14 = getelementptr inbounds ptr, ptr %13, i64 0
  %15 = load ptr, ptr %14, align 8
  %16 = call noundef i32 %15(ptr noundef nonnull align 8 dereferenceable(52) %12)
  store i32 %16, ptr %5, align 4
  %17 = load i32, ptr %5, align 4
  %18 = icmp eq i32 %17, 185
  br i1 %18, label %19, label %28

19:                                               ; preds = %11
  %20 = load ptr, ptr %4, align 8
  %21 = call noundef ptr @_ZNK4Node2inEj(ptr noundef nonnull align 8 dereferenceable(52) %20, i32 noundef 2)
  %22 = call noundef zeroext i1 @_ZNK4Node6is_ConEv(ptr noundef nonnull align 8 dereferenceable(52) %21)
  br i1 %22, label %23, label %28

23:                                               ; preds = %19
  %24 = load ptr, ptr %4, align 8
  %25 = call noundef ptr @_ZNK4Node2inEj(ptr noundef nonnull align 8 dereferenceable(52) %24, i32 noundef 2)
  %26 = call noundef i32 @_ZNK4Node7get_intEv(ptr noundef nonnull align 8 dereferenceable(52) %25)
  %27 = shl i32 1, %26
  store i32 %27, ptr %2, align 4
  br label %42

28:                                               ; preds = %19, %11
  %29 = load i32, ptr %5, align 4
  %30 = icmp eq i32 %29, 186
  br i1 %30, label %31, label %40

31:                                               ; preds = %28
  %32 = load ptr, ptr %4, align 8
  %33 = call noundef ptr @_ZNK4Node2inEj(ptr noundef nonnull align 8 dereferenceable(52) %32, i32 noundef 2)
  %34 = call noundef zeroext i1 @_ZNK4Node6is_ConEv(ptr noundef nonnull align 8 dereferenceable(52) %33)
  br i1 %34, label %35, label %40

35:                                               ; preds = %31
  %36 = load ptr, ptr %4, align 8
  %37 = call noundef ptr @_ZNK4Node2inEj(ptr noundef nonnull align 8 dereferenceable(52) %36, i32 noundef 2)
  %38 = call noundef i32 @_ZNK4Node7get_intEv(ptr noundef nonnull align 8 dereferenceable(52) %37)
  %39 = shl i32 1, %38
  store i32 %39, ptr %2, align 4
  br label %42

40:                                               ; preds = %31, %28
  br label %41

41:                                               ; preds = %40
  store i32 1, ptr %2, align 4
  br label %42

42:                                               ; preds = %41, %35, %23, %10
  %43 = load i32, ptr %2, align 4
  ret i32 %43
}