; Function Attrs: mustprogress nounwind uwtable
define hidden noundef i32 @_ZNK8VPointer12invar_factorEv(ptr nocapture noundef nonnull readonly align 8 dereferenceable(64) %0) local_unnamed_addr #0 align 2 {
  %2 = getelementptr inbounds i8, ptr %0, i64 40
  %3 = load ptr, ptr %2, align 8
  %4 = icmp eq ptr %3, null
  br i1 %4, label %36, label %5

5:                                                ; preds = %1
  %6 = load ptr, ptr %3, align 8
  %7 = load ptr, ptr %6, align 8
  %8 = tail call noundef i32 %7(ptr noundef nonnull align 8 dereferenceable(52) %3) #13
  switch i32 %8, label %36 [
    i32 185, label %9
    i32 186, label %21
  ]

9:                                                ; preds = %5
  %10 = getelementptr inbounds i8, ptr %3, i64 8
  %11 = load ptr, ptr %10, align 8
  %12 = getelementptr inbounds i8, ptr %11, i64 16
  %13 = load ptr, ptr %12, align 8
  %14 = getelementptr inbounds i8, ptr %13, i64 48
  %15 = load i32, ptr %14, align 8
  %16 = and i32 %15, 16
  %.not12 = icmp eq i32 %16, 0
  br i1 %.not12, label %36, label %17

17:                                               ; preds = %9
  %18 = tail call noundef ptr @_ZNK4Node13find_int_typeEv(ptr noundef nonnull align 8 dereferenceable(52) %13) #13
  %.not.i = icmp eq ptr %18, null
  br i1 %.not.i, label %19, label %.sink.split

19:                                               ; preds = %17
  %20 = load ptr, ptr @g_assert_poison, align 8
  store i8 88, ptr %20, align 1
  tail call void (ptr, i32, ptr, ptr, ...) @_Z15report_vm_errorPKciS0_S0_z(ptr noundef nonnull @.str.16, i32 noundef 1206, ptr noundef nonnull @.str.17, ptr noundef nonnull @.str.18) #14
  unreachable

21:                                               ; preds = %5
  %22 = getelementptr inbounds i8, ptr %3, i64 8
  %23 = load ptr, ptr %22, align 8
  %24 = getelementptr inbounds i8, ptr %23, i64 16
  %25 = load ptr, ptr %24, align 8
  %26 = getelementptr inbounds i8, ptr %25, i64 48
  %27 = load i32, ptr %26, align 8
  %28 = and i32 %27, 16
  %.not = icmp eq i32 %28, 0
  br i1 %.not, label %36, label %29

29:                                               ; preds = %21
  %30 = tail call noundef ptr @_ZNK4Node13find_int_typeEv(ptr noundef nonnull align 8 dereferenceable(52) %25) #13
  %.not.i10 = icmp eq ptr %30, null
  br i1 %.not.i10, label %31, label %.sink.split

31:                                               ; preds = %29
  %32 = load ptr, ptr @g_assert_poison, align 8
  store i8 88, ptr %32, align 1
  tail call void (ptr, i32, ptr, ptr, ...) @_Z15report_vm_errorPKciS0_S0_z(ptr noundef nonnull @.str.16, i32 noundef 1206, ptr noundef nonnull @.str.17, ptr noundef nonnull @.str.18) #14
  unreachable

.sink.split:                                      ; preds = %29, %17
  %.sink = phi ptr [ %18, %17 ], [ %30, %29 ]
  %33 = getelementptr inbounds i8, ptr %.sink, i64 24
  %34 = load i32, ptr %33, align 8
  %35 = shl nuw i32 1, %34
  br label %36

36:                                               ; preds = %.sink.split, %9, %21, %5, %1
  %.0 = phi i32 [ 0, %1 ], [ 1, %5 ], [ 1, %21 ], [ 1, %9 ], [ %35, %.sink.split ]
  ret i32 %.0
}